target datalayout = "e-m:e-p270:32:32-p271:32:32-p272:64:64-i64:64-i128:128-f80:128-n8:16:32:64-S128"
target triple = "x86_64-pc-linux-gnu"

%"class.zmq::msg_t" = type { %union.anon }
%union.anon = type { %struct.anon }
%struct.anon = type { ptr, [34 x i8], i8, i8, i32, %"union.zmq::msg_t::group_t" }
%"union.zmq::msg_t::group_t" = type { %struct.anon.1 }
%struct.anon.1 = type { i8, ptr }
%struct.anon.2 = type { ptr, [33 x i8], i8, i8, i8, i32, %"union.zmq::msg_t::group_t" }
%struct.anon.0 = type { i8, [15 x i8] }

; Function Attrs: mustprogress nounwind uwtable
define noundef i32 @_ZN3zmq5msg_t4initEv(ptr noundef nonnull align 8 dereferenceable(64) %0) #0 align 2 {
  %2 = alloca ptr, align 8
  store ptr %0, ptr %2, align 8, !tbaa !3
  %3 = load ptr, ptr %2, align 8
  %4 = getelementptr inbounds nuw %"class.zmq::msg_t", ptr %3, i32 0, i32 0
  %5 = getelementptr inbounds nuw %struct.anon.2, ptr %4, i32 0, i32 0
  store ptr null, ptr %5, align 8, !tbaa !8
  %6 = getelementptr inbounds nuw %"class.zmq::msg_t", ptr %3, i32 0, i32 0
  %7 = getelementptr inbounds nuw %struct.anon.2, ptr %6, i32 0, i32 3
  store i8 101, ptr %7, align 2, !tbaa !8
  %8 = getelementptr inbounds nuw %"class.zmq::msg_t", ptr %3, i32 0, i32 0
  %9 = getelementptr inbounds nuw %struct.anon.2, ptr %8, i32 0, i32 4
  store i8 0, ptr %9, align 1, !tbaa !8
  %10 = getelementptr inbounds nuw %"class.zmq::msg_t", ptr %3, i32 0, i32 0
  %11 = getelementptr inbounds nuw %struct.anon.2, ptr %10, i32 0, i32 2
  store i8 0, ptr %11, align 1, !tbaa !8
  %12 = getelementptr inbounds nuw %"class.zmq::msg_t", ptr %3, i32 0, i32 0
  %13 = getelementptr inbounds nuw %struct.anon.2, ptr %12, i32 0, i32 6
  %14 = getelementptr inbounds nuw %struct.anon.0, ptr %13, i32 0, i32 1
  %15 = getelementptr inbounds [15 x i8], ptr %14, i64 0, i64 0
  store i8 0, ptr %15, align 1, !tbaa !8
  %16 = getelementptr inbounds nuw %"class.zmq::msg_t", ptr %3, i32 0, i32 0
  %17 = getelementptr inbounds nuw %struct.anon.2, ptr %16, i32 0, i32 6
  store i8 0, ptr %17, align 8, !tbaa !8
  %18 = getelementptr inbounds nuw %"class.zmq::msg_t", ptr %3, i32 0, i32 0
  %19 = getelementptr inbounds nuw %struct.anon.2, ptr %18, i32 0, i32 5
  store i32 0, ptr %19, align 4, !tbaa !8
  ret i32 0
}

; Function Attrs: mustprogress nounwind uwtable
define noundef zeroext i1 @_ZNK3zmq5msg_t5checkEv(ptr noundef nonnull align 8 dereferenceable(64) %0) #0 align 2 {
  %2 = alloca ptr, align 8
  store ptr %0, ptr %2, align 8, !tbaa !3
  %3 = load ptr, ptr %2, align 8
  %4 = getelementptr inbounds nuw %"class.zmq::msg_t", ptr %3, i32 0, i32 0
  %5 = getelementptr inbounds nuw %struct.anon, ptr %4, i32 0, i32 2
  %6 = load i8, ptr %5, align 2, !tbaa !8
  %7 = zext i8 %6 to i32
  %8 = icmp sge i32 %7, 101
  br i1 %8, label %9, label %15

9:                                                ; preds = %1
  %10 = getelementptr inbounds nuw %"class.zmq::msg_t", ptr %3, i32 0, i32 0
  %11 = getelementptr inbounds nuw %struct.anon, ptr %10, i32 0, i32 2
  %12 = load i8, ptr %11, align 2, !tbaa !8
  %13 = zext i8 %12 to i32
  %14 = icmp sle i32 %13, 107
  br label %15

15:                                               ; preds = %9, %1
  %16 = phi i1 [ false, %1 ], [ %14, %9 ]
  ret i1 %16
}

; Function Attrs: mustprogress uwtable
define noundef i32 @_ZN3zmq5msg_t4moveERS0_(ptr noundef nonnull align 8 dereferenceable(64) %0, ptr noundef nonnull align 8 dereferenceable(64) %1) #1 align 2 {
  %3 = alloca i32, align 4
  %4 = alloca ptr, align 8
  %5 = alloca ptr, align 8
  %6 = alloca i32, align 4
  %7 = alloca i32, align 4
  store ptr %0, ptr %4, align 8, !tbaa !3
  store ptr %1, ptr %5, align 8, !tbaa !3
  %8 = load ptr, ptr %4, align 8
  %9 = load ptr, ptr %5, align 8, !tbaa !3
  %10 = call noundef zeroext i1 @_ZNK3zmq5msg_t5checkEv(ptr noundef nonnull align 8 dereferenceable(64) %9)
  %11 = xor i1 %10, true
  %12 = zext i1 %11 to i64
  %13 = call i64 @llvm.expect.i64(i64 %12, i64 0)
  %14 = icmp ne i64 %13, 0
  br i1 %14, label %15, label %17

15:                                               ; preds = %2
  %16 = call ptr @__errno_location() #16
  store i32 14, ptr %16, align 4, !tbaa !14
  store i32 -1, ptr %3, align 4
  br label %39

17:                                               ; preds = %2
  call void @llvm.lifetime.start.p0(i64 4, ptr %6) #14
  %18 = call noundef i32 @_ZN3zmq5msg_t5closeEv(ptr noundef nonnull align 8 dereferenceable(64) %8)
  store i32 %18, ptr %6, align 4, !tbaa !14
  %19 = load i32, ptr %6, align 4, !tbaa !14
  %20 = icmp slt i32 %19, 0
  %21 = zext i1 %20 to i64
  %22 = call i64 @llvm.expect.i64(i64 %21, i64 0)
  %23 = icmp ne i64 %22, 0
  br i1 %23, label %24, label %26

24:                                               ; preds = %17
  %25 = load i32, ptr %6, align 4, !tbaa !14
  store i32 %25, ptr %3, align 4
  store i32 1, ptr %7, align 4
  br label %38

26:                                               ; preds = %17
  %27 = load ptr, ptr %5, align 8, !tbaa !3
  call void @llvm.memcpy.p0.p0.i64(ptr align 8 %8, ptr align 8 %27, i64 64, i1 false), !tbaa.struct !32
  %28 = load ptr, ptr %5, align 8, !tbaa !3
  %29 = call noundef i32 @_ZN3zmq5msg_t4initEv(ptr noundef nonnull align 8 dereferenceable(64) %28)
  store i32 %29, ptr %6, align 4, !tbaa !14
  %30 = load i32, ptr %6, align 4, !tbaa !14
  %31 = icmp slt i32 %30, 0
  %32 = zext i1 %31 to i64
  %33 = call i64 @llvm.expect.i64(i64 %32, i64 0)
  %34 = icmp ne i64 %33, 0
  br i1 %34, label %35, label %37

35:                                               ; preds = %26
  %36 = load i32, ptr %6, align 4, !tbaa !14
  store i32 %36, ptr %3, align 4
  store i32 1, ptr %7, align 4
  br label %38

37:                                               ; preds = %26
  store i32 0, ptr %3, align 4
  store i32 1, ptr %7, align 4
  br label %38

38:                                               ; preds = %37, %35, %24
  call void @llvm.lifetime.end.p0(i64 4, ptr %6) #14
  br label %39

39:                                               ; preds = %38, %15
  %40 = load i32, ptr %3, align 4
  ret i32 %40
}