; Function Attrs: mustprogress uwtable
define noundef range(i32 -1, 1) i32 @_ZN3zmq5msg_t4moveERS0_(ptr noundef nonnull align 8 captures(none) dereferenceable(64) %0, ptr noundef nonnull align 8 captures(none) dereferenceable(64) %1) local_unnamed_addr #1 align 2 {
  %3 = getelementptr inbounds nuw i8, ptr %1, i64 42
  %4 = load i8, ptr %3, align 2, !tbaa !3
  %5 = add i8 %4, -101
  %spec.select.i = icmp ult i8 %5, 7
  br i1 %spec.select.i, label %8, label %6, !prof !23

6:                                                ; preds = %2
  %7 = tail call ptr @__errno_location() #22
  store i32 14, ptr %7, align 4, !tbaa !22
  br label %14

8:                                                ; preds = %2
  %9 = tail call noundef i32 @_ZN3zmq5msg_t5closeEv(ptr noundef nonnull align 8 dereferenceable(64) %0)
  %10 = icmp slt i32 %9, 0
  br i1 %10, label %14, label %11, !prof !6

11:                                               ; preds = %8
  tail call void @llvm.memcpy.p0.p0.i64(ptr noundef nonnull align 8 dereferenceable(64) %0, ptr noundef nonnull align 8 dereferenceable(64) %1, i64 64, i1 false), !tbaa.struct !29
  store ptr null, ptr %1, align 8, !tbaa !3
  store i8 101, ptr %3, align 2, !tbaa !3
  %12 = getelementptr inbounds nuw i8, ptr %1, i64 43
  %13 = getelementptr inbounds nuw i8, ptr %1, i64 41
  store i8 0, ptr %13, align 1, !tbaa !3
  tail call void @llvm.memset.p0.i64(ptr noundef nonnull align 1 dereferenceable(7) %12, i8 0, i64 7, i1 false)
  br label %14

14:                                               ; preds = %11, %8, %6
  %.0 = phi i32 [ -1, %6 ], [ 0, %11 ], [ -1, %8 ]
  ret i32 %.0
}